; Function Attrs: mustprogress nounwind uwtable
define hidden noundef zeroext i1 @_ZN19G1HeapRegionClaimer12claim_regionEj(ptr nocapture noundef nonnull readonly align 8 dereferenceable(16) %0, i32 noundef %1) local_unnamed_addr #0 align 2 {
  %3 = getelementptr inbounds i8, ptr %0, i64 8
  %4 = load ptr, ptr %3, align 8
  %5 = zext i32 %1 to i64
  %6 = getelementptr inbounds i32, ptr %4, i64 %5
  %7 = tail call noundef i32 asm sideeffect "lock cmpxchgl $1,($3)", "={ax},r,{ax},r,~{cc},~{memory},~{dirflag},~{fpsr},~{flags}"(i32 1, i32 0, ptr %6) #16, !srcloc !29
  %8 = icmp eq i32 %7, 0
  ret i1 %8
}